; Function Attrs: mustprogress uwtable
define internal void @_ZN4absl18container_internal12raw_hash_setINS0_12_GLOBAL__N_16PolicyENS2_8IdentityESt8equal_toIiENS2_12CheckedAllocINS0_7TrackedIiEELi6EEEE10dealloc_fnERNS0_12CommonFieldsERKNS0_15PolicyFunctionsE(ptr nocapture noundef nonnull readonly align 8 dereferenceable(32) %common, ptr nocapture nonnull readnone align 8 %0) #3 align 2 {
entry:
  %capacity_.i = getelementptr inbounds i8, ptr %common, i64 16
  %1 = load i64, ptr %capacity_.i, align 8
  %add.ptr.i.i = getelementptr inbounds i8, ptr %common, i64 32
  %2 = load ptr, ptr %common, align 8
  %size_.i.i = getelementptr inbounds i8, ptr %common, i64 24
  %3 = load i64, ptr %size_.i.i, align 8
  %and.i.i = and i64 %3, 1
  %add.i.neg.i = sub nuw nsw i64 -8, %and.i.i
  %add.ptr.i = getelementptr inbounds i8, ptr %2, i64 %add.i.neg.i
  %add2.i.i.i = add i64 %1, 31
  %sub.i.i.i = add i64 %add2.i.i.i, %and.i.i
  %and.i.i.i = and i64 %sub.i.i.i, -8
  %mul.i.i = mul i64 %1, 40
  %add.i.i = add i64 %and.i.i.i, %mul.i.i
  tail call fastcc void @_ZN4absl18container_internal10DeallocateILm8ENS0_12_GLOBAL__N_112CheckedAllocINS0_7TrackedIiEELi6EEEEEvPT0_Pvm(ptr noundef nonnull %add.ptr.i.i, ptr noundef nonnull %add.ptr.i, i64 noundef %add.i.i)
  ret void
}